(dp1
S'templateset'
p2
(dp3
S'type'
p4
S'integer'
p5
sS'sortable'
p6
I4
sS'sql'
p7
S'INTEGER'
p8
ssS'id'
p9
(dp10
g4
g9
sg6
I1
sg7
S'INTEGER PRIMARY KEY AUTOINCREMENT'
p11
ssS'template'
p12
(dp13
g4
g5
sg6
I2
sg7
S'INTEGER'
p14
ssS'responsetemplate'
p15
(dp16
g4
g5
sg6
I3
sg7
S'INTEGER'
p17
ss.