(dp1
S'id'
p2
(dp3
S'type'
p4
g2
sS'sortable'
p5
I1
sS'sql'
p6
S'INTEGER PRIMARY KEY AUTOINCREMENT'
p7
ssS'template'
p8
(dp9
g4
S'integer'
p10
sg5
I2
sg6
S'INTEGER'
p11
ssS'templateset'
p12
(dp13
g4
g10
sg5
I3
sg6
S'INTEGER'
p14
ss.